target datalayout = "e-m:e-p270:32:32-p271:32:32-p272:64:64-i64:64-i128:128-f80:128-n8:16:32:64-S128"
target triple = "x86_64-pc-linux-gnu"

%struct.eio_obj = type { i32, ptr, ptr, i8 }
%struct.client_io_info = type { i32, ptr, %struct.io_hdr_t, ptr, i32, i8, ptr, ptr, i32, i8, i32, i32, i8, i32, i8 }
%struct.io_hdr_t = type { i32, i16, i16, i32 }
%struct.stepd_step_rec_t = type { ptr, ptr, i32, %union.pthread_cond_t, %union.pthread_mutex_t, %struct.slurm_step_id_msg, i32, i32, i32, i32, i32, i32, ptr, ptr, i32, i32, ptr, i32, i32, i32, i32, i32, ptr, ptr, ptr, ptr, i32, i32, i64, i64, i16, i32, ptr, ptr, ptr, i32, ptr, i32, ptr, i32, ptr, i16, i32, i32, i32, ptr, i32, ptr, ptr, ptr, ptr, i32, i32, ptr, ptr, i8, i8, i8, i64, i32, ptr, ptr, ptr, ptr, ptr, ptr, ptr, ptr, ptr, ptr, i32, i32, ptr, i8, %union.pthread_cond_t, %union.pthread_mutex_t, i64, ptr, i32, i32, i32, ptr, i64, ptr, ptr, i8, ptr, i16, ptr, ptr, ptr, ptr, ptr, ptr, i64, ptr, i64, ptr, i16, i8, i16, i32, ptr, i16, ptr, ptr, i16, ptr, ptr, ptr, i8 }
%struct.slurm_step_id_msg = type { i64, i32, i32, i32 }
%union.pthread_cond_t = type { %struct.__pthread_cond_s }
%struct.__pthread_cond_s = type { %union.__atomic_wide_counter, %union.__atomic_wide_counter, [2 x i32], [2 x i32], i32, i32, [2 x i32] }
%union.__atomic_wide_counter = type { i64 }
%union.pthread_mutex_t = type { %struct.__pthread_mutex_s }
%struct.__pthread_mutex_s = type { i32, i32, i32, i32, i32, i16, i16, %struct.__pthread_internal_list }
%struct.__pthread_internal_list = type { ptr, ptr }
%struct.io_buf = type { i32, i32, ptr }
%struct.buf_t = type { i32, ptr, i32, i32, i8, i8 }

@.str.48 = private unnamed_addr constant [48 x i8] c"Failure to allocate memory for a message header\00", align 1

; Function Attrs: nounwind uwtable
define internal void @_free_all_outgoing_msgs(ptr noundef %0, ptr noundef %1) #0 {
  %3 = alloca ptr, align 8
  %4 = alloca ptr, align 8
  %5 = alloca ptr, align 8
  %6 = alloca ptr, align 8
  store ptr %0, ptr %3, align 8
  store ptr %1, ptr %4, align 8
  call void @llvm.lifetime.start.p0(i64 8, ptr %5) #10
  call void @llvm.lifetime.start.p0(i64 8, ptr %6) #10
  %7 = load ptr, ptr %3, align 8
  %8 = call ptr @list_iterator_create(ptr noundef %7)
  store ptr %8, ptr %5, align 8
  br label %9

9:                                                ; preds = %13, %2
  %10 = load ptr, ptr %5, align 8
  %11 = call ptr @list_next(ptr noundef %10)
  store ptr %11, ptr %6, align 8
  %12 = icmp ne ptr %11, null
  br i1 %12, label %13, label %16

13:                                               ; preds = %9
  %14 = load ptr, ptr %6, align 8
  %15 = load ptr, ptr %4, align 8
  call void @_free_outgoing_msg(ptr noundef %14, ptr noundef %15)
  br label %9, !llvm.loop !29

16:                                               ; preds = %9
  %17 = load ptr, ptr %5, align 8
  call void @list_iterator_destroy(ptr noundef %17)
  call void @llvm.lifetime.end.p0(i64 8, ptr %6) #10
  call void @llvm.lifetime.end.p0(i64 8, ptr %5) #10
  ret void
}

; Function Attrs: nounwind uwtable
define internal i32 @_local_file_write(ptr noundef %0, ptr noundef %1) #0 {
  %3 = alloca i32, align 4
  %4 = alloca ptr, align 8
  %5 = alloca ptr, align 8
  %6 = alloca ptr, align 8
  %7 = alloca ptr, align 8
  %8 = alloca i32, align 4
  %9 = alloca %struct.io_hdr_t, align 4
  %10 = alloca ptr, align 8
  %11 = alloca i32, align 4
  store ptr %0, ptr %4, align 8
  store ptr %1, ptr %5, align 8
  call void @llvm.lifetime.start.p0(i64 8, ptr %6) #10
  %12 = load ptr, ptr %4, align 8
  %13 = getelementptr inbounds nuw %struct.eio_obj, ptr %12, i32 0, i32 1
  %14 = load ptr, ptr %13, align 8
  store ptr %14, ptr %6, align 8
  call void @llvm.lifetime.start.p0(i64 8, ptr %7) #10
  call void @llvm.lifetime.start.p0(i64 4, ptr %8) #10
  call void @llvm.lifetime.start.p0(i64 12, ptr %9) #10
  call void @llvm.lifetime.start.p0(i64 8, ptr %10) #10
  %15 = load ptr, ptr %6, align 8
  %16 = getelementptr inbounds nuw %struct.client_io_info, ptr %15, i32 0, i32 7
  %17 = load ptr, ptr %16, align 8
  %18 = icmp eq ptr %17, null
  br i1 %18, label %19, label %40

19:                                               ; preds = %2
  %20 = load ptr, ptr %6, align 8
  %21 = getelementptr inbounds nuw %struct.client_io_info, ptr %20, i32 0, i32 6
  %22 = load ptr, ptr %21, align 8
  %23 = call ptr @list_dequeue(ptr noundef %22)
  %24 = load ptr, ptr %6, align 8
  %25 = getelementptr inbounds nuw %struct.client_io_info, ptr %24, i32 0, i32 7
  store ptr %23, ptr %25, align 8
  %26 = load ptr, ptr %6, align 8
  %27 = getelementptr inbounds nuw %struct.client_io_info, ptr %26, i32 0, i32 7
  %28 = load ptr, ptr %27, align 8
  %29 = icmp eq ptr %28, null
  br i1 %29, label %30, label %31

30:                                               ; preds = %19
  store i32 0, ptr %3, align 4
  store i32 1, ptr %11, align 4
  br label %156

31:                                               ; preds = %19
  %32 = load ptr, ptr %6, align 8
  %33 = getelementptr inbounds nuw %struct.client_io_info, ptr %32, i32 0, i32 7
  %34 = load ptr, ptr %33, align 8
  %35 = getelementptr inbounds nuw %struct.io_buf, ptr %34, i32 0, i32 1
  %36 = load i32, ptr %35, align 4
  %37 = sub i32 %36, 10
  %38 = load ptr, ptr %6, align 8
  %39 = getelementptr inbounds nuw %struct.client_io_info, ptr %38, i32 0, i32 8
  store i32 %37, ptr %39, align 8
  br label %40

40:                                               ; preds = %31, %2
  %41 = load ptr, ptr %6, align 8
  %42 = getelementptr inbounds nuw %struct.client_io_info, ptr %41, i32 0, i32 7
  %43 = load ptr, ptr %42, align 8
  %44 = getelementptr inbounds nuw %struct.io_buf, ptr %43, i32 0, i32 2
  %45 = load ptr, ptr %44, align 8
  %46 = load ptr, ptr %6, align 8
  %47 = getelementptr inbounds nuw %struct.client_io_info, ptr %46, i32 0, i32 7
  %48 = load ptr, ptr %47, align 8
  %49 = getelementptr inbounds nuw %struct.io_buf, ptr %48, i32 0, i32 1
  %50 = load i32, ptr %49, align 4
  %51 = call ptr @create_buf(ptr noundef %45, i32 noundef %50)
  store ptr %51, ptr %10, align 8
  %52 = load ptr, ptr %10, align 8
  %53 = icmp ne ptr %52, null
  br i1 %53, label %55, label %54

54:                                               ; preds = %40
  call void (ptr, ...) @fatal(ptr noundef @.str.48) #12
  unreachable

55:                                               ; preds = %40
  %56 = load ptr, ptr %10, align 8
  %57 = call i32 @io_hdr_unpack(ptr noundef %9, ptr noundef %56)
  %58 = load ptr, ptr %10, align 8
  %59 = getelementptr inbounds nuw %struct.buf_t, ptr %58, i32 0, i32 1
  store ptr null, ptr %59, align 8
  br label %60

60:                                               ; preds = %55
  %61 = load ptr, ptr %10, align 8
  %62 = icmp ne ptr %61, null
  br i1 %62, label %63, label %65

63:                                               ; preds = %60
  %64 = load ptr, ptr %10, align 8
  call void @free_buf(ptr noundef %64)
  br label %65

65:                                               ; preds = %63, %60
  store ptr null, ptr %10, align 8
  br label %66

66:                                               ; preds = %65
  br label %67

67:                                               ; preds = %66
  %68 = getelementptr inbounds nuw %struct.io_hdr_t, ptr %9, i32 0, i32 3
  %69 = load i32, ptr %68, align 4
  %70 = icmp eq i32 %69, 0
  br i1 %70, label %71, label %80

71:                                               ; preds = %67
  %72 = load ptr, ptr %6, align 8
  %73 = getelementptr inbounds nuw %struct.client_io_info, ptr %72, i32 0, i32 7
  %74 = load ptr, ptr %73, align 8
  %75 = load ptr, ptr %6, align 8
  %76 = getelementptr inbounds nuw %struct.client_io_info, ptr %75, i32 0, i32 1
  %77 = load ptr, ptr %76, align 8
  call void @_free_outgoing_msg(ptr noundef %74, ptr noundef %77)
  %78 = load ptr, ptr %6, align 8
  %79 = getelementptr inbounds nuw %struct.client_io_info, ptr %78, i32 0, i32 7
  store ptr null, ptr %79, align 8
  store i32 0, ptr %3, align 4
  store i32 1, ptr %11, align 4
  br label %156

80:                                               ; preds = %67
  %81 = load ptr, ptr %6, align 8
  %82 = getelementptr inbounds nuw %struct.client_io_info, ptr %81, i32 0, i32 7
  %83 = load ptr, ptr %82, align 8
  %84 = getelementptr inbounds nuw %struct.io_buf, ptr %83, i32 0, i32 2
  %85 = load ptr, ptr %84, align 8
  %86 = load ptr, ptr %6, align 8
  %87 = getelementptr inbounds nuw %struct.client_io_info, ptr %86, i32 0, i32 7
  %88 = load ptr, ptr %87, align 8
  %89 = getelementptr inbounds nuw %struct.io_buf, ptr %88, i32 0, i32 1
  %90 = load i32, ptr %89, align 4
  %91 = load ptr, ptr %6, align 8
  %92 = getelementptr inbounds nuw %struct.client_io_info, ptr %91, i32 0, i32 8
  %93 = load i32, ptr %92, align 8
  %94 = sub i32 %90, %93
  %95 = zext i32 %94 to i64
  %96 = getelementptr inbounds nuw i8, ptr %85, i64 %95
  store ptr %96, ptr %7, align 8
  %97 = load ptr, ptr %4, align 8
  %98 = getelementptr inbounds nuw %struct.eio_obj, ptr %97, i32 0, i32 0
  %99 = load i32, ptr %98, align 8
  %100 = load ptr, ptr %7, align 8
  %101 = load ptr, ptr %6, align 8
  %102 = getelementptr inbounds nuw %struct.client_io_info, ptr %101, i32 0, i32 8
  %103 = load i32, ptr %102, align 8
  %104 = getelementptr inbounds nuw %struct.io_hdr_t, ptr %9, i32 0, i32 1
  %105 = load i16, ptr %104, align 4
  %106 = zext i16 %105 to i32
  %107 = load ptr, ptr %6, align 8
  %108 = getelementptr inbounds nuw %struct.client_io_info, ptr %107, i32 0, i32 1
  %109 = load ptr, ptr %108, align 8
  %110 = getelementptr inbounds nuw %struct.stepd_step_rec_t, ptr %109, i32 0, i32 19
  %111 = load i32, ptr %110, align 8
  %112 = load ptr, ptr %6, align 8
  %113 = getelementptr inbounds nuw %struct.client_io_info, ptr %112, i32 0, i32 1
  %114 = load ptr, ptr %113, align 8
  %115 = getelementptr inbounds nuw %struct.stepd_step_rec_t, ptr %114, i32 0, i32 21
  %116 = load i32, ptr %115, align 8
  %117 = load ptr, ptr %6, align 8
  %118 = getelementptr inbounds nuw %struct.client_io_info, ptr %117, i32 0, i32 12
  %119 = load i8, ptr %118, align 8, !range !8, !noundef !9
  %120 = trunc i8 %119 to i1
  %121 = load ptr, ptr %6, align 8
  %122 = getelementptr inbounds nuw %struct.client_io_info, ptr %121, i32 0, i32 13
  %123 = load i32, ptr %122, align 4
  %124 = call i32 @write_labelled_message(i32 noundef %99, ptr noundef %100, i32 noundef %103, i32 noundef %106, i32 noundef %111, i32 noundef %116, i1 noundef zeroext %120, i32 noundef %123)
  store i32 %124, ptr %8, align 4
  %125 = load i32, ptr %8, align 4
  %126 = icmp slt i32 %125, 0
  br i1 %126, label %127, label %136

127:                                              ; preds = %80
  %128 = load ptr, ptr %6, align 8
  %129 = getelementptr inbounds nuw %struct.client_io_info, ptr %128, i32 0, i32 9
  store i8 1, ptr %129, align 4
  %130 = load ptr, ptr %6, align 8
  %131 = getelementptr inbounds nuw %struct.client_io_info, ptr %130, i32 0, i32 6
  %132 = load ptr, ptr %131, align 8
  %133 = load ptr, ptr %6, align 8
  %134 = getelementptr inbounds nuw %struct.client_io_info, ptr %133, i32 0, i32 1
  %135 = load ptr, ptr %134, align 8
  call void @_free_all_outgoing_msgs(ptr noundef %132, ptr noundef %135)
  store i32 -1, ptr %3, align 4
  store i32 1, ptr %11, align 4
  br label %156

136:                                              ; preds = %80
  %137 = load i32, ptr %8, align 4
  %138 = load ptr, ptr %6, align 8
  %139 = getelementptr inbounds nuw %struct.client_io_info, ptr %138, i32 0, i32 8
  %140 = load i32, ptr %139, align 8
  %141 = sub nsw i32 %140, %137
  store i32 %141, ptr %139, align 8
  %142 = load ptr, ptr %6, align 8
  %143 = getelementptr inbounds nuw %struct.client_io_info, ptr %142, i32 0, i32 8
  %144 = load i32, ptr %143, align 8
  %145 = icmp eq i32 %144, 0
  br i1 %145, label %146, label %155

146:                                              ; preds = %136
  %147 = load ptr, ptr %6, align 8
  %148 = getelementptr inbounds nuw %struct.client_io_info, ptr %147, i32 0, i32 7
  %149 = load ptr, ptr %148, align 8
  %150 = load ptr, ptr %6, align 8
  %151 = getelementptr inbounds nuw %struct.client_io_info, ptr %150, i32 0, i32 1
  %152 = load ptr, ptr %151, align 8
  call void @_free_outgoing_msg(ptr noundef %149, ptr noundef %152)
  %153 = load ptr, ptr %6, align 8
  %154 = getelementptr inbounds nuw %struct.client_io_info, ptr %153, i32 0, i32 7
  store ptr null, ptr %154, align 8
  br label %155

155:                                              ; preds = %146, %136
  store i32 0, ptr %3, align 4
  store i32 1, ptr %11, align 4
  br label %156

156:                                              ; preds = %155, %127, %71, %30
  call void @llvm.lifetime.end.p0(i64 8, ptr %10) #10
  call void @llvm.lifetime.end.p0(i64 12, ptr %9) #10
  call void @llvm.lifetime.end.p0(i64 4, ptr %8) #10
  call void @llvm.lifetime.end.p0(i64 8, ptr %7) #10
  call void @llvm.lifetime.end.p0(i64 8, ptr %6) #10
  %157 = load i32, ptr %3, align 4
  ret i32 %157
}