; Function Attrs: nounwind uwtable
define internal range(i32 -1, 1) i32 @_local_file_write(ptr noundef readonly captures(none) %0, ptr readnone captures(none) %1) #0 {
  %3 = alloca %struct.io_hdr_t, align 4
  %4 = getelementptr inbounds nuw i8, ptr %0, i64 8
  %5 = load ptr, ptr %4, align 8
  call void @llvm.lifetime.start.p0(i64 12, ptr nonnull %3) #11
  %6 = getelementptr inbounds nuw i8, ptr %5, i64 56
  %7 = load ptr, ptr %6, align 8
  %8 = icmp eq ptr %7, null
  br i1 %8, label %9, label %19

9:                                                ; preds = %2
  %10 = getelementptr inbounds nuw i8, ptr %5, i64 48
  %11 = load ptr, ptr %10, align 8
  %12 = tail call ptr @list_dequeue(ptr noundef %11) #11
  store ptr %12, ptr %6, align 8
  %13 = icmp eq ptr %12, null
  br i1 %13, label %80, label %14

14:                                               ; preds = %9
  %15 = getelementptr inbounds nuw i8, ptr %12, i64 4
  %16 = load i32, ptr %15, align 4
  %17 = add i32 %16, -10
  %18 = getelementptr inbounds nuw i8, ptr %5, i64 64
  store i32 %17, ptr %18, align 8
  br label %19

19:                                               ; preds = %14, %2
  %20 = phi ptr [ %12, %14 ], [ %7, %2 ]
  %21 = getelementptr inbounds nuw i8, ptr %20, i64 8
  %22 = load ptr, ptr %21, align 8
  %23 = getelementptr inbounds nuw i8, ptr %20, i64 4
  %24 = load i32, ptr %23, align 4
  %25 = tail call ptr @create_buf(ptr noundef %22, i32 noundef %24) #11
  %.not = icmp eq ptr %25, null
  br i1 %.not, label %26, label %27

26:                                               ; preds = %19
  tail call void (ptr, ...) @fatal(ptr noundef nonnull @.str.48) #12
  unreachable

27:                                               ; preds = %19
  %28 = call i32 @io_hdr_unpack(ptr noundef nonnull %3, ptr noundef nonnull %25) #11
  %29 = getelementptr inbounds nuw i8, ptr %25, i64 8
  store ptr null, ptr %29, align 8
  call void @free_buf(ptr noundef nonnull %25) #11
  %30 = getelementptr inbounds nuw i8, ptr %3, i64 8
  %31 = load i32, ptr %30, align 4
  %32 = icmp eq i32 %31, 0
  %33 = load ptr, ptr %6, align 8
  br i1 %32, label %34, label %37

34:                                               ; preds = %27
  %35 = getelementptr inbounds nuw i8, ptr %5, i64 8
  %36 = load ptr, ptr %35, align 8
  call fastcc void @_free_outgoing_msg(ptr noundef %33, ptr noundef %36)
  store ptr null, ptr %6, align 8
  br label %80

37:                                               ; preds = %27
  %38 = getelementptr inbounds nuw i8, ptr %33, i64 8
  %39 = load ptr, ptr %38, align 8
  %40 = getelementptr inbounds nuw i8, ptr %33, i64 4
  %41 = load i32, ptr %40, align 4
  %42 = getelementptr inbounds nuw i8, ptr %5, i64 64
  %43 = load i32, ptr %42, align 8
  %44 = sub i32 %41, %43
  %45 = zext i32 %44 to i64
  %46 = getelementptr inbounds nuw i8, ptr %39, i64 %45
  %47 = load i32, ptr %0, align 8
  %48 = getelementptr inbounds nuw i8, ptr %3, i64 4
  %49 = load i16, ptr %48, align 4
  %50 = zext i16 %49 to i32
  %51 = getelementptr inbounds nuw i8, ptr %5, i64 8
  %52 = load ptr, ptr %51, align 8
  %53 = getelementptr inbounds nuw i8, ptr %52, i64 200
  %54 = load i32, ptr %53, align 8
  %55 = getelementptr inbounds nuw i8, ptr %52, i64 208
  %56 = load i32, ptr %55, align 8
  %57 = getelementptr inbounds nuw i8, ptr %5, i64 80
  %58 = load i8, ptr %57, align 8, !range !8, !noundef !9
  %59 = trunc nuw i8 %58 to i1
  %60 = getelementptr inbounds nuw i8, ptr %5, i64 84
  %61 = load i32, ptr %60, align 4
  %62 = call i32 @write_labelled_message(i32 noundef %47, ptr noundef %46, i32 noundef %43, i32 noundef %50, i32 noundef %54, i32 noundef %56, i1 noundef zeroext %59, i32 noundef %61) #11
  %63 = icmp slt i32 %62, 0
  br i1 %63, label %64, label %73

64:                                               ; preds = %37
  %65 = getelementptr inbounds nuw i8, ptr %5, i64 68
  store i8 1, ptr %65, align 4
  %66 = getelementptr inbounds nuw i8, ptr %5, i64 48
  %67 = load ptr, ptr %66, align 8
  %68 = load ptr, ptr %51, align 8
  %69 = call ptr @list_iterator_create(ptr noundef %67) #11
  %70 = call ptr @list_next(ptr noundef %69) #11
  %.not5.i = icmp eq ptr %70, null
  br i1 %.not5.i, label %_free_all_outgoing_msgs.exit, label %.lr.ph.i

.lr.ph.i:                                         ; preds = %64, %.lr.ph.i
  %71 = phi ptr [ %72, %.lr.ph.i ], [ %70, %64 ]
  call fastcc void @_free_outgoing_msg(ptr noundef nonnull %71, ptr noundef %68)
  %72 = call ptr @list_next(ptr noundef %69) #11
  %.not.i = icmp eq ptr %72, null
  br i1 %.not.i, label %_free_all_outgoing_msgs.exit, label %.lr.ph.i, !llvm.loop !16

_free_all_outgoing_msgs.exit:                     ; preds = %.lr.ph.i, %64
  call void @list_iterator_destroy(ptr noundef %69) #11
  br label %80

73:                                               ; preds = %37
  %74 = load i32, ptr %42, align 8
  %75 = sub nsw i32 %74, %62
  store i32 %75, ptr %42, align 8
  %76 = icmp eq i32 %74, %62
  br i1 %76, label %77, label %80

77:                                               ; preds = %73
  %78 = load ptr, ptr %6, align 8
  %79 = load ptr, ptr %51, align 8
  call fastcc void @_free_outgoing_msg(ptr noundef %78, ptr noundef %79)
  store ptr null, ptr %6, align 8
  br label %80

80:                                               ; preds = %73, %77, %9, %_free_all_outgoing_msgs.exit, %34
  %.0 = phi i32 [ 0, %34 ], [ -1, %_free_all_outgoing_msgs.exit ], [ 0, %9 ], [ 0, %77 ], [ 0, %73 ]
  call void @llvm.lifetime.end.p0(i64 12, ptr nonnull %3) #11
  ret i32 %.0
}